target datalayout = "e-m:e-p270:32:32-p271:32:32-p272:64:64-i64:64-i128:128-f80:128-n8:16:32:64-S128"
target triple = "x86_64-pc-linux-gnu"

%"struct.Imf_3_4::DeepSlice" = type { %"struct.Imf_3_4::Slice.base", i32 }
%"struct.Imf_3_4::Slice.base" = type <{ i32, [4 x i8], ptr, i64, i64, i32, i32, double, i8, i8 }>
%"class.Imf_3_4::Name" = type { [256 x i8] }
%"class.Imf_3_4::DeepFrameBuffer" = type { %"class.std::map", %"struct.Imf_3_4::Slice" }
%"class.std::map" = type { %"class.std::_Rb_tree" }
%"class.std::_Rb_tree" = type { %"struct.std::_Rb_tree<Imf_3_4::Name, std::pair<const Imf_3_4::Name, Imf_3_4::DeepSlice>, std::_Select1st<std::pair<const Imf_3_4::Name, Imf_3_4::DeepSlice>>, std::less<Imf_3_4::Name>>::_Rb_tree_impl" }
%"struct.std::_Rb_tree<Imf_3_4::Name, std::pair<const Imf_3_4::Name, Imf_3_4::DeepSlice>, std::_Select1st<std::pair<const Imf_3_4::Name, Imf_3_4::DeepSlice>>, std::less<Imf_3_4::Name>>::_Rb_tree_impl" = type { [8 x i8], %"struct.std::_Rb_tree_header" }
%"struct.std::_Rb_tree_header" = type { %"struct.std::_Rb_tree_node_base", i64 }
%"struct.std::_Rb_tree_node_base" = type { i32, ptr, ptr, ptr }
%"struct.Imf_3_4::Slice" = type <{ i32, [4 x i8], ptr, i64, i64, i32, i32, double, i8, i8, [6 x i8] }>
%"struct.std::_Rb_tree_const_iterator" = type { ptr }
%"struct.std::pair" = type { %"class.Imf_3_4::Name", %"struct.Imf_3_4::DeepSlice" }
%"class.Imf_3_4::DeepFrameBuffer::ConstIterator" = type { %"struct.std::_Rb_tree_const_iterator" }
%"struct.std::_Rb_tree_node" = type { %"struct.std::_Rb_tree_node_base", %"struct.__gnu_cxx::__aligned_membuf" }
%"struct.__gnu_cxx::__aligned_membuf" = type { [312 x i8] }
%"struct.std::_Select1st" = type { i8 }

; Function Attrs: mustprogress nounwind uwtable
define linkonce_odr hidden noundef ptr @_ZNK9__gnu_cxx16__aligned_membufISt4pairIKN7Imf_3_44NameENS2_9DeepSliceEEE7_M_addrEv(ptr noundef nonnull align 8 dereferenceable(312) %0) #7 comdat align 2 {
  %2 = alloca ptr, align 8
  store ptr %0, ptr %2, align 8, !tbaa !64
  %3 = load ptr, ptr %2, align 8
  %4 = getelementptr inbounds nuw %"struct.__gnu_cxx::__aligned_membuf", ptr %3, i32 0, i32 0
  ret ptr %4
}

; Function Attrs: mustprogress nounwind uwtable
define linkonce_odr hidden noundef ptr @_ZNK9__gnu_cxx16__aligned_membufISt4pairIKN7Imf_3_44NameENS2_9DeepSliceEEE6_M_ptrEv(ptr noundef nonnull align 8 dereferenceable(312) %0) #7 comdat align 2 {
  %2 = alloca ptr, align 8
  store ptr %0, ptr %2, align 8, !tbaa !64
  %3 = load ptr, ptr %2, align 8
  %4 = call noundef ptr @_ZNK9__gnu_cxx16__aligned_membufISt4pairIKN7Imf_3_44NameENS2_9DeepSliceEEE7_M_addrEv(ptr noundef nonnull align 8 dereferenceable(312) %3) #3
  ret ptr %4
}

; Function Attrs: inlinehint mustprogress nounwind uwtable
define linkonce_odr hidden noundef ptr @_ZNK7Imf_3_44NamedeEv(ptr noundef nonnull align 1 dereferenceable(256) %0) #9 comdat align 2 {
  %2 = alloca ptr, align 8
  store ptr %0, ptr %2, align 8, !tbaa !36
  %3 = load ptr, ptr %2, align 8
  %4 = getelementptr inbounds nuw %"class.Imf_3_4::Name", ptr %3, i32 0, i32 0
  %5 = getelementptr inbounds [256 x i8], ptr %4, i64 0, i64 0
  ret ptr %5
}

; Function Attrs: mustprogress nounwind uwtable
define linkonce_odr hidden noundef nonnull align 1 dereferenceable(256) ptr @_ZNKSt10_Select1stISt4pairIKN7Imf_3_44NameENS1_9DeepSliceEEEclERKS5_(ptr noundef nonnull align 1 dereferenceable(1) %0, ptr noundef nonnull align 8 dereferenceable(312) %1) #7 comdat align 2 {
  %3 = alloca ptr, align 8
  %4 = alloca ptr, align 8
  store ptr %0, ptr %3, align 8, !tbaa !139
  store ptr %1, ptr %4, align 8, !tbaa !141
  %5 = load ptr, ptr %4, align 8, !tbaa !141
  %6 = getelementptr inbounds nuw %"struct.std::pair", ptr %5, i32 0, i32 0
  ret ptr %6
}

; Function Attrs: mustprogress nounwind uwtable
define linkonce_odr hidden noundef ptr @_ZNKSt13_Rb_tree_nodeISt4pairIKN7Imf_3_44NameENS1_9DeepSliceEEE9_M_valptrEv(ptr noundef nonnull align 8 dereferenceable(344) %0) #7 comdat align 2 {
  %2 = alloca ptr, align 8
  store ptr %0, ptr %2, align 8, !tbaa !62
  %3 = load ptr, ptr %2, align 8
  %4 = getelementptr inbounds nuw %"struct.std::_Rb_tree_node", ptr %3, i32 0, i32 1
  %5 = call noundef ptr @_ZNK9__gnu_cxx16__aligned_membufISt4pairIKN7Imf_3_44NameENS2_9DeepSliceEEE6_M_ptrEv(ptr noundef nonnull align 8 dereferenceable(312) %4) #3
  ret ptr %5
}

; Function Attrs: inlinehint mustprogress uwtable
define linkonce_odr hidden noundef zeroext i1 @_ZN7Imf_3_4ltERKNS_4NameES2_(ptr noundef nonnull align 1 dereferenceable(256) %0, ptr noundef nonnull align 1 dereferenceable(256) %1) #6 comdat {
  %3 = alloca ptr, align 8
  %4 = alloca ptr, align 8
  store ptr %0, ptr %3, align 8, !tbaa !36
  store ptr %1, ptr %4, align 8, !tbaa !36
  %5 = load ptr, ptr %3, align 8, !tbaa !36
  %6 = call noundef ptr @_ZNK7Imf_3_44NamedeEv(ptr noundef nonnull align 1 dereferenceable(256) %5)
  %7 = load ptr, ptr %4, align 8, !tbaa !36
  %8 = call noundef ptr @_ZNK7Imf_3_44NamedeEv(ptr noundef nonnull align 1 dereferenceable(256) %7)
  %9 = call i32 @strcmp(ptr noundef %6, ptr noundef %8) #20
  %10 = icmp slt i32 %9, 0
  ret i1 %10
}

; Function Attrs: mustprogress nounwind uwtable
define linkonce_odr hidden void @_ZNSt23_Rb_tree_const_iteratorISt4pairIKN7Imf_3_44NameENS1_9DeepSliceEEEC2EPKSt18_Rb_tree_node_base(ptr noundef nonnull align 8 dereferenceable(8) %0, ptr noundef %1) unnamed_addr #7 comdat align 2 {
  %3 = alloca ptr, align 8
  %4 = alloca ptr, align 8
  store ptr %0, ptr %3, align 8, !tbaa !47
  store ptr %1, ptr %4, align 8, !tbaa !39
  %5 = load ptr, ptr %3, align 8
  %6 = getelementptr inbounds nuw %"struct.std::_Rb_tree_const_iterator", ptr %5, i32 0, i32 0
  %7 = load ptr, ptr %4, align 8, !tbaa !39
  store ptr %7, ptr %6, align 8, !tbaa !49
  ret void
}

; Function Attrs: mustprogress nounwind uwtable
define linkonce_odr hidden noundef ptr @_ZNSt8_Rb_treeIN7Imf_3_44NameESt4pairIKS1_NS0_9DeepSliceEESt10_Select1stIS5_ESt4lessIS1_ESaIS5_EE8_S_rightEPKSt18_Rb_tree_node_base(ptr noundef %0) #7 comdat align 2 {
  %2 = alloca ptr, align 8
  store ptr %0, ptr %2, align 8, !tbaa !39
  %3 = load ptr, ptr %2, align 8, !tbaa !39
  %4 = getelementptr inbounds nuw %"struct.std::_Rb_tree_node_base", ptr %3, i32 0, i32 3
  %5 = load ptr, ptr %4, align 8, !tbaa !138
  ret ptr %5
}

; Function Attrs: mustprogress nounwind uwtable
define linkonce_odr hidden noundef ptr @_ZNSt8_Rb_treeIN7Imf_3_44NameESt4pairIKS1_NS0_9DeepSliceEESt10_Select1stIS5_ESt4lessIS1_ESaIS5_EE7_S_leftEPKSt18_Rb_tree_node_base(ptr noundef %0) #7 comdat align 2 {
  %2 = alloca ptr, align 8
  store ptr %0, ptr %2, align 8, !tbaa !39
  %3 = load ptr, ptr %2, align 8, !tbaa !39
  %4 = getelementptr inbounds nuw %"struct.std::_Rb_tree_node_base", ptr %3, i32 0, i32 2
  %5 = load ptr, ptr %4, align 8, !tbaa !135
  ret ptr %5
}

; Function Attrs: mustprogress uwtable
define linkonce_odr hidden noundef nonnull align 1 dereferenceable(256) ptr @_ZNSt8_Rb_treeIN7Imf_3_44NameESt4pairIKS1_NS0_9DeepSliceEESt10_Select1stIS5_ESt4lessIS1_ESaIS5_EE6_S_keyEPKSt13_Rb_tree_nodeIS5_E(ptr noundef %0) #4 comdat align 2 {
  %2 = alloca ptr, align 8
  %3 = alloca %"struct.std::_Select1st", align 1
  store ptr %0, ptr %2, align 8, !tbaa !62
  call void @llvm.lifetime.start.p0(i64 1, ptr %3) #3
  %4 = load ptr, ptr %2, align 8, !tbaa !62
  %5 = call noundef ptr @_ZNKSt13_Rb_tree_nodeISt4pairIKN7Imf_3_44NameENS1_9DeepSliceEEE9_M_valptrEv(ptr noundef nonnull align 8 dereferenceable(344) %4)
  %6 = call noundef nonnull align 1 dereferenceable(256) ptr @_ZNKSt10_Select1stISt4pairIKN7Imf_3_44NameENS1_9DeepSliceEEEclERKS5_(ptr noundef nonnull align 1 dereferenceable(1) %3, ptr noundef nonnull align 8 dereferenceable(312) %5)
  call void @llvm.lifetime.end.p0(i64 1, ptr %3) #3
  ret ptr %6
}

; Function Attrs: mustprogress uwtable
define linkonce_odr hidden noundef zeroext i1 @_ZNKSt4lessIN7Imf_3_44NameEEclERKS1_S4_(ptr noundef nonnull align 1 dereferenceable(1) %0, ptr noundef nonnull align 1 dereferenceable(256) %1, ptr noundef nonnull align 1 dereferenceable(256) %2) #4 comdat align 2 {
  %4 = alloca ptr, align 8
  %5 = alloca ptr, align 8
  %6 = alloca ptr, align 8
  store ptr %0, ptr %4, align 8, !tbaa !120
  store ptr %1, ptr %5, align 8, !tbaa !36
  store ptr %2, ptr %6, align 8, !tbaa !36
  %7 = load ptr, ptr %5, align 8, !tbaa !36
  %8 = load ptr, ptr %6, align 8, !tbaa !36
  %9 = call noundef zeroext i1 @_ZN7Imf_3_4ltERKNS_4NameES2_(ptr noundef nonnull align 1 dereferenceable(256) %7, ptr noundef nonnull align 1 dereferenceable(256) %8)
  ret i1 %9
}

; Function Attrs: mustprogress uwtable
define linkonce_odr hidden noundef nonnull align 1 dereferenceable(256) ptr @_ZNSt8_Rb_treeIN7Imf_3_44NameESt4pairIKS1_NS0_9DeepSliceEESt10_Select1stIS5_ESt4lessIS1_ESaIS5_EE6_S_keyEPKSt18_Rb_tree_node_base(ptr noundef %0) #4 comdat align 2 {
  %2 = alloca ptr, align 8
  store ptr %0, ptr %2, align 8, !tbaa !39
  %3 = load ptr, ptr %2, align 8, !tbaa !39
  %4 = call noundef nonnull align 1 dereferenceable(256) ptr @_ZNSt8_Rb_treeIN7Imf_3_44NameESt4pairIKS1_NS0_9DeepSliceEESt10_Select1stIS5_ESt4lessIS1_ESaIS5_EE6_S_keyEPKSt13_Rb_tree_nodeIS5_E(ptr noundef %3)
  ret ptr %4
}

; Function Attrs: mustprogress nounwind uwtable
define linkonce_odr noundef zeroext i1 @_ZSteqRKSt23_Rb_tree_const_iteratorISt4pairIKN7Imf_3_44NameENS1_9DeepSliceEEES8_(ptr noundef nonnull align 8 dereferenceable(8) %0, ptr noundef nonnull align 8 dereferenceable(8) %1) #7 comdat {
  %3 = alloca ptr, align 8
  %4 = alloca ptr, align 8
  store ptr %0, ptr %3, align 8, !tbaa !47
  store ptr %1, ptr %4, align 8, !tbaa !47
  %5 = load ptr, ptr %3, align 8, !tbaa !47
  %6 = getelementptr inbounds nuw %"struct.std::_Rb_tree_const_iterator", ptr %5, i32 0, i32 0
  %7 = load ptr, ptr %6, align 8, !tbaa !49
  %8 = load ptr, ptr %4, align 8, !tbaa !47
  %9 = getelementptr inbounds nuw %"struct.std::_Rb_tree_const_iterator", ptr %8, i32 0, i32 0
  %10 = load ptr, ptr %9, align 8, !tbaa !49
  %11 = icmp eq ptr %7, %10
  ret i1 %11
}

; Function Attrs: mustprogress nounwind uwtable
define linkonce_odr hidden ptr @_ZNKSt8_Rb_treeIN7Imf_3_44NameESt4pairIKS1_NS0_9DeepSliceEESt10_Select1stIS5_ESt4lessIS1_ESaIS5_EE3endEv(ptr noundef nonnull align 8 dereferenceable(48) %0) #7 comdat align 2 {
  %2 = alloca %"struct.std::_Rb_tree_const_iterator", align 8
  %3 = alloca ptr, align 8
  store ptr %0, ptr %3, align 8, !tbaa !122
  %4 = load ptr, ptr %3, align 8
  %5 = getelementptr inbounds nuw %"class.std::_Rb_tree", ptr %4, i32 0, i32 0
  %6 = getelementptr inbounds i8, ptr %5, i64 8
  %7 = getelementptr inbounds nuw %"struct.std::_Rb_tree_header", ptr %6, i32 0, i32 0
  call void @_ZNSt23_Rb_tree_const_iteratorISt4pairIKN7Imf_3_44NameENS1_9DeepSliceEEEC2EPKSt18_Rb_tree_node_base(ptr noundef nonnull align 8 dereferenceable(8) %2, ptr noundef %7) #3
  %8 = getelementptr inbounds nuw %"struct.std::_Rb_tree_const_iterator", ptr %2, i32 0, i32 0
  %9 = load ptr, ptr %8, align 8
  ret ptr %9
}

; Function Attrs: mustprogress uwtable
define linkonce_odr ptr @_ZNKSt8_Rb_treeIN7Imf_3_44NameESt4pairIKS1_NS0_9DeepSliceEESt10_Select1stIS5_ESt4lessIS1_ESaIS5_EE14_M_lower_boundEPKSt13_Rb_tree_nodeIS5_EPKSt18_Rb_tree_node_baseRS3_(ptr noundef nonnull align 8 dereferenceable(48) %0, ptr noundef %1, ptr noundef %2, ptr noundef nonnull align 1 dereferenceable(256) %3) #4 comdat align 2 {
  %5 = alloca %"struct.std::_Rb_tree_const_iterator", align 8
  %6 = alloca ptr, align 8
  %7 = alloca ptr, align 8
  %8 = alloca ptr, align 8
  %9 = alloca ptr, align 8
  store ptr %0, ptr %6, align 8, !tbaa !122
  store ptr %1, ptr %7, align 8, !tbaa !62
  store ptr %2, ptr %8, align 8, !tbaa !39
  store ptr %3, ptr %9, align 8, !tbaa !36
  %10 = load ptr, ptr %6, align 8
  br label %11

11:                                               ; preds = %27, %4
  %12 = load ptr, ptr %7, align 8, !tbaa !62
  %13 = icmp ne ptr %12, null
  br i1 %13, label %14, label %28

14:                                               ; preds = %11
  %15 = getelementptr inbounds nuw %"class.std::_Rb_tree", ptr %10, i32 0, i32 0
  %16 = load ptr, ptr %7, align 8, !tbaa !62
  %17 = call noundef nonnull align 1 dereferenceable(256) ptr @_ZNSt8_Rb_treeIN7Imf_3_44NameESt4pairIKS1_NS0_9DeepSliceEESt10_Select1stIS5_ESt4lessIS1_ESaIS5_EE6_S_keyEPKSt13_Rb_tree_nodeIS5_E(ptr noundef %16)
  %18 = load ptr, ptr %9, align 8, !tbaa !36
  %19 = call noundef zeroext i1 @_ZNKSt4lessIN7Imf_3_44NameEEclERKS1_S4_(ptr noundef nonnull align 1 dereferenceable(1) %15, ptr noundef nonnull align 1 dereferenceable(256) %17, ptr noundef nonnull align 1 dereferenceable(256) %18)
  br i1 %19, label %24, label %20

20:                                               ; preds = %14
  %21 = load ptr, ptr %7, align 8, !tbaa !62
  store ptr %21, ptr %8, align 8, !tbaa !39
  %22 = load ptr, ptr %7, align 8, !tbaa !62
  %23 = call noundef ptr @_ZNSt8_Rb_treeIN7Imf_3_44NameESt4pairIKS1_NS0_9DeepSliceEESt10_Select1stIS5_ESt4lessIS1_ESaIS5_EE7_S_leftEPKSt18_Rb_tree_node_base(ptr noundef %22) #3
  store ptr %23, ptr %7, align 8, !tbaa !62
  br label %27

24:                                               ; preds = %14
  %25 = load ptr, ptr %7, align 8, !tbaa !62
  %26 = call noundef ptr @_ZNSt8_Rb_treeIN7Imf_3_44NameESt4pairIKS1_NS0_9DeepSliceEESt10_Select1stIS5_ESt4lessIS1_ESaIS5_EE8_S_rightEPKSt18_Rb_tree_node_base(ptr noundef %25) #3
  store ptr %26, ptr %7, align 8, !tbaa !62
  br label %27

27:                                               ; preds = %24, %20
  br label %11, !llvm.loop !172

28:                                               ; preds = %11
  %29 = load ptr, ptr %8, align 8, !tbaa !39
  call void @_ZNSt23_Rb_tree_const_iteratorISt4pairIKN7Imf_3_44NameENS1_9DeepSliceEEEC2EPKSt18_Rb_tree_node_base(ptr noundef nonnull align 8 dereferenceable(8) %5, ptr noundef %29) #3
  %30 = getelementptr inbounds nuw %"struct.std::_Rb_tree_const_iterator", ptr %5, i32 0, i32 0
  %31 = load ptr, ptr %30, align 8
  ret ptr %31
}

; Function Attrs: mustprogress nounwind uwtable
define linkonce_odr hidden noundef ptr @_ZNKSt8_Rb_treeIN7Imf_3_44NameESt4pairIKS1_NS0_9DeepSliceEESt10_Select1stIS5_ESt4lessIS1_ESaIS5_EE6_M_endEv(ptr noundef nonnull align 8 dereferenceable(48) %0) #7 comdat align 2 {
  %2 = alloca ptr, align 8
  store ptr %0, ptr %2, align 8, !tbaa !122
  %3 = load ptr, ptr %2, align 8
  %4 = getelementptr inbounds nuw %"class.std::_Rb_tree", ptr %3, i32 0, i32 0
  %5 = getelementptr inbounds i8, ptr %4, i64 8
  %6 = getelementptr inbounds nuw %"struct.std::_Rb_tree_header", ptr %5, i32 0, i32 0
  ret ptr %6
}

; Function Attrs: mustprogress nounwind uwtable
define linkonce_odr hidden noundef ptr @_ZNKSt8_Rb_treeIN7Imf_3_44NameESt4pairIKS1_NS0_9DeepSliceEESt10_Select1stIS5_ESt4lessIS1_ESaIS5_EE8_M_beginEv(ptr noundef nonnull align 8 dereferenceable(48) %0) #7 comdat align 2 {
  %2 = alloca ptr, align 8
  store ptr %0, ptr %2, align 8, !tbaa !122
  %3 = load ptr, ptr %2, align 8
  %4 = getelementptr inbounds nuw %"class.std::_Rb_tree", ptr %3, i32 0, i32 0
  %5 = getelementptr inbounds i8, ptr %4, i64 8
  %6 = getelementptr inbounds nuw %"struct.std::_Rb_tree_header", ptr %5, i32 0, i32 0
  %7 = getelementptr inbounds nuw %"struct.std::_Rb_tree_node_base", ptr %6, i32 0, i32 1
  %8 = load ptr, ptr %7, align 8, !tbaa !143
  ret ptr %8
}

; Function Attrs: mustprogress uwtable
define linkonce_odr ptr @_ZNKSt8_Rb_treeIN7Imf_3_44NameESt4pairIKS1_NS0_9DeepSliceEESt10_Select1stIS5_ESt4lessIS1_ESaIS5_EE4findERS3_(ptr noundef nonnull align 8 dereferenceable(48) %0, ptr noundef nonnull align 1 dereferenceable(256) %1) #4 comdat align 2 {
  %3 = alloca %"struct.std::_Rb_tree_const_iterator", align 8
  %4 = alloca ptr, align 8
  %5 = alloca ptr, align 8
  %6 = alloca %"struct.std::_Rb_tree_const_iterator", align 8
  %7 = alloca %"struct.std::_Rb_tree_const_iterator", align 8
  store ptr %0, ptr %4, align 8, !tbaa !122
  store ptr %1, ptr %5, align 8, !tbaa !36
  %8 = load ptr, ptr %4, align 8
  call void @llvm.lifetime.start.p0(i64 8, ptr %6) #3
  %9 = call noundef ptr @_ZNKSt8_Rb_treeIN7Imf_3_44NameESt4pairIKS1_NS0_9DeepSliceEESt10_Select1stIS5_ESt4lessIS1_ESaIS5_EE8_M_beginEv(ptr noundef nonnull align 8 dereferenceable(48) %8) #3
  %10 = call noundef ptr @_ZNKSt8_Rb_treeIN7Imf_3_44NameESt4pairIKS1_NS0_9DeepSliceEESt10_Select1stIS5_ESt4lessIS1_ESaIS5_EE6_M_endEv(ptr noundef nonnull align 8 dereferenceable(48) %8) #3
  %11 = load ptr, ptr %5, align 8, !tbaa !36
  %12 = call ptr @_ZNKSt8_Rb_treeIN7Imf_3_44NameESt4pairIKS1_NS0_9DeepSliceEESt10_Select1stIS5_ESt4lessIS1_ESaIS5_EE14_M_lower_boundEPKSt13_Rb_tree_nodeIS5_EPKSt18_Rb_tree_node_baseRS3_(ptr noundef nonnull align 8 dereferenceable(48) %8, ptr noundef %9, ptr noundef %10, ptr noundef nonnull align 1 dereferenceable(256) %11)
  %13 = getelementptr inbounds nuw %"struct.std::_Rb_tree_const_iterator", ptr %6, i32 0, i32 0
  store ptr %12, ptr %13, align 8
  call void @llvm.lifetime.start.p0(i64 8, ptr %7) #3
  %14 = call ptr @_ZNKSt8_Rb_treeIN7Imf_3_44NameESt4pairIKS1_NS0_9DeepSliceEESt10_Select1stIS5_ESt4lessIS1_ESaIS5_EE3endEv(ptr noundef nonnull align 8 dereferenceable(48) %8) #3
  %15 = getelementptr inbounds nuw %"struct.std::_Rb_tree_const_iterator", ptr %7, i32 0, i32 0
  store ptr %14, ptr %15, align 8
  %16 = call noundef zeroext i1 @_ZSteqRKSt23_Rb_tree_const_iteratorISt4pairIKN7Imf_3_44NameENS1_9DeepSliceEEES8_(ptr noundef nonnull align 8 dereferenceable(8) %6, ptr noundef nonnull align 8 dereferenceable(8) %7) #3
  br i1 %16, label %24, label %17

17:                                               ; preds = %2
  %18 = getelementptr inbounds nuw %"class.std::_Rb_tree", ptr %8, i32 0, i32 0
  %19 = load ptr, ptr %5, align 8, !tbaa !36
  %20 = getelementptr inbounds nuw %"struct.std::_Rb_tree_const_iterator", ptr %6, i32 0, i32 0
  %21 = load ptr, ptr %20, align 8, !tbaa !49
  %22 = call noundef nonnull align 1 dereferenceable(256) ptr @_ZNSt8_Rb_treeIN7Imf_3_44NameESt4pairIKS1_NS0_9DeepSliceEESt10_Select1stIS5_ESt4lessIS1_ESaIS5_EE6_S_keyEPKSt18_Rb_tree_node_base(ptr noundef %21)
  %23 = call noundef zeroext i1 @_ZNKSt4lessIN7Imf_3_44NameEEclERKS1_S4_(ptr noundef nonnull align 1 dereferenceable(1) %18, ptr noundef nonnull align 1 dereferenceable(256) %19, ptr noundef nonnull align 1 dereferenceable(256) %22)
  br i1 %23, label %24, label %27

24:                                               ; preds = %17, %2
  %25 = call ptr @_ZNKSt8_Rb_treeIN7Imf_3_44NameESt4pairIKS1_NS0_9DeepSliceEESt10_Select1stIS5_ESt4lessIS1_ESaIS5_EE3endEv(ptr noundef nonnull align 8 dereferenceable(48) %8) #3
  %26 = getelementptr inbounds nuw %"struct.std::_Rb_tree_const_iterator", ptr %3, i32 0, i32 0
  store ptr %25, ptr %26, align 8
  br label %28

27:                                               ; preds = %17
  call void @llvm.memcpy.p0.p0.i64(ptr align 8 %3, ptr align 8 %6, i64 8, i1 false), !tbaa.struct !38
  br label %28

28:                                               ; preds = %27, %24
  call void @llvm.lifetime.end.p0(i64 8, ptr %7) #3
  call void @llvm.lifetime.end.p0(i64 8, ptr %6) #3
  %29 = getelementptr inbounds nuw %"struct.std::_Rb_tree_const_iterator", ptr %3, i32 0, i32 0
  %30 = load ptr, ptr %29, align 8
  ret ptr %30
}

; Function Attrs: inlinehint mustprogress nounwind uwtable
define linkonce_odr hidden noundef nonnull align 1 dereferenceable(256) ptr @_ZN7Imf_3_44NameaSEPKc(ptr noundef nonnull align 1 dereferenceable(256) %0, ptr noundef %1) #9 comdat align 2 {
  %3 = alloca ptr, align 8
  %4 = alloca ptr, align 8
  store ptr %0, ptr %3, align 8, !tbaa !36
  store ptr %1, ptr %4, align 8, !tbaa !10
  %5 = load ptr, ptr %3, align 8
  %6 = getelementptr inbounds nuw %"class.Imf_3_4::Name", ptr %5, i32 0, i32 0
  %7 = getelementptr inbounds [256 x i8], ptr %6, i64 0, i64 0
  %8 = load ptr, ptr %4, align 8, !tbaa !10
  %9 = call ptr @strncpy(ptr noundef %7, ptr noundef %8, i64 noundef 255) #3
  ret ptr %5
}

; Function Attrs: inlinehint mustprogress nounwind uwtable
define linkonce_odr void @_ZN7Imf_3_415DeepFrameBuffer13ConstIteratorC2ERKSt23_Rb_tree_const_iteratorISt4pairIKNS_4NameENS_9DeepSliceEEE(ptr noundef nonnull align 8 dereferenceable(8) %0, ptr noundef nonnull align 8 dereferenceable(8) %1) unnamed_addr #9 comdat align 2 {
  %3 = alloca ptr, align 8
  %4 = alloca ptr, align 8
  store ptr %0, ptr %3, align 8, !tbaa !53
  store ptr %1, ptr %4, align 8, !tbaa !47
  %5 = load ptr, ptr %3, align 8
  %6 = getelementptr inbounds nuw %"class.Imf_3_4::DeepFrameBuffer::ConstIterator", ptr %5, i32 0, i32 0
  %7 = load ptr, ptr %4, align 8, !tbaa !47
  call void @llvm.memcpy.p0.p0.i64(ptr align 8 %6, ptr align 8 %7, i64 8, i1 false), !tbaa.struct !38
  ret void
}

; Function Attrs: mustprogress uwtable
define linkonce_odr hidden ptr @_ZNKSt3mapIN7Imf_3_44NameENS0_9DeepSliceESt4lessIS1_ESaISt4pairIKS1_S2_EEE4findERS6_(ptr noundef nonnull align 8 dereferenceable(48) %0, ptr noundef nonnull align 1 dereferenceable(256) %1) #4 comdat align 2 {
  %3 = alloca %"struct.std::_Rb_tree_const_iterator", align 8
  %4 = alloca ptr, align 8
  %5 = alloca ptr, align 8
  store ptr %0, ptr %4, align 8, !tbaa !34
  store ptr %1, ptr %5, align 8, !tbaa !36
  %6 = load ptr, ptr %4, align 8
  %7 = getelementptr inbounds nuw %"class.std::map", ptr %6, i32 0, i32 0
  %8 = load ptr, ptr %5, align 8, !tbaa !36
  %9 = call ptr @_ZNKSt8_Rb_treeIN7Imf_3_44NameESt4pairIKS1_NS0_9DeepSliceEESt10_Select1stIS5_ESt4lessIS1_ESaIS5_EE4findERS3_(ptr noundef nonnull align 8 dereferenceable(48) %7, ptr noundef nonnull align 1 dereferenceable(256) %8)
  %10 = getelementptr inbounds nuw %"struct.std::_Rb_tree_const_iterator", ptr %3, i32 0, i32 0
  store ptr %9, ptr %10, align 8
  %11 = getelementptr inbounds nuw %"struct.std::_Rb_tree_const_iterator", ptr %3, i32 0, i32 0
  %12 = load ptr, ptr %11, align 8
  ret ptr %12
}

; Function Attrs: inlinehint mustprogress uwtable
define linkonce_odr hidden void @_ZN7Imf_3_44NameC2EPKc(ptr noundef nonnull align 1 dereferenceable(256) %0, ptr noundef %1) unnamed_addr #6 comdat align 2 {
  %3 = alloca ptr, align 8
  %4 = alloca ptr, align 8
  store ptr %0, ptr %3, align 8, !tbaa !36
  store ptr %1, ptr %4, align 8, !tbaa !10
  %5 = load ptr, ptr %3, align 8
  %6 = load ptr, ptr %4, align 8, !tbaa !10
  %7 = call noundef nonnull align 1 dereferenceable(256) ptr @_ZN7Imf_3_44NameaSEPKc(ptr noundef nonnull align 1 dereferenceable(256) %5, ptr noundef %6)
  %8 = getelementptr inbounds nuw %"class.Imf_3_4::Name", ptr %5, i32 0, i32 0
  %9 = getelementptr inbounds [256 x i8], ptr %8, i64 0, i64 255
  store i8 0, ptr %9, align 1, !tbaa !27
  ret void
}

; Function Attrs: mustprogress uwtable
define ptr @_ZNK7Imf_3_415DeepFrameBuffer4findEPKc(ptr noundef nonnull align 8 dereferenceable(104) %0, ptr noundef %1) #4 align 2 {
  %3 = alloca %"class.Imf_3_4::DeepFrameBuffer::ConstIterator", align 8
  %4 = alloca ptr, align 8
  %5 = alloca ptr, align 8
  %6 = alloca %"struct.std::_Rb_tree_const_iterator", align 8
  %7 = alloca %"class.Imf_3_4::Name", align 1
  store ptr %0, ptr %4, align 8, !tbaa !25
  store ptr %1, ptr %5, align 8, !tbaa !10
  %8 = load ptr, ptr %4, align 8
  call void @llvm.lifetime.start.p0(i64 8, ptr %6) #3
  %9 = getelementptr inbounds nuw %"class.Imf_3_4::DeepFrameBuffer", ptr %8, i32 0, i32 0
  call void @llvm.lifetime.start.p0(i64 256, ptr %7) #3
  %10 = load ptr, ptr %5, align 8, !tbaa !10
  call void @_ZN7Imf_3_44NameC2EPKc(ptr noundef nonnull align 1 dereferenceable(256) %7, ptr noundef %10)
  %11 = call ptr @_ZNKSt3mapIN7Imf_3_44NameENS0_9DeepSliceESt4lessIS1_ESaISt4pairIKS1_S2_EEE4findERS6_(ptr noundef nonnull align 8 dereferenceable(48) %9, ptr noundef nonnull align 1 dereferenceable(256) %7)
  %12 = getelementptr inbounds nuw %"struct.std::_Rb_tree_const_iterator", ptr %6, i32 0, i32 0
  store ptr %11, ptr %12, align 8
  call void @_ZN7Imf_3_415DeepFrameBuffer13ConstIteratorC2ERKSt23_Rb_tree_const_iteratorISt4pairIKNS_4NameENS_9DeepSliceEEE(ptr noundef nonnull align 8 dereferenceable(8) %3, ptr noundef nonnull align 8 dereferenceable(8) %6)
  call void @llvm.lifetime.end.p0(i64 256, ptr %7) #3
  call void @llvm.lifetime.end.p0(i64 8, ptr %6) #3
  %13 = getelementptr inbounds nuw %"class.Imf_3_4::DeepFrameBuffer::ConstIterator", ptr %3, i32 0, i32 0
  %14 = getelementptr inbounds nuw %"struct.std::_Rb_tree_const_iterator", ptr %13, i32 0, i32 0
  %15 = load ptr, ptr %14, align 8
  ret ptr %15
}